target datalayout = "e-m:e-p270:32:32-p271:32:32-p272:64:64-i64:64-i128:128-f80:128-n8:16:32:64-S128"
target triple = "x86_64-pc-linux-gnu"

; Function Attrs: nounwind uwtable
define internal i32 @lre_case_folding_entry(i32 noundef %0, i32 noundef %1, i32 noundef %2, i32 noundef %3) #0 {
  %5 = alloca i32, align 4
  %6 = alloca i32, align 4
  %7 = alloca i32, align 4
  %8 = alloca i32, align 4
  %9 = alloca [3 x i32], align 4
  %10 = alloca i32, align 4
  store i32 %0, ptr %5, align 4
  store i32 %1, ptr %6, align 4
  store i32 %2, ptr %7, align 4
  store i32 %3, ptr %8, align 4
  %11 = load i32, ptr %8, align 4
  %12 = icmp ne i32 %11, 0
  br i1 %12, label %13, label %40

13:                                               ; preds = %4
  %14 = getelementptr inbounds [3 x i32], ptr %9, i64 0, i64 0
  %15 = load i32, ptr %5, align 4
  %16 = load i32, ptr %6, align 4
  %17 = load i32, ptr %7, align 4
  %18 = call i32 @lre_case_conv_entry(ptr noundef %14, i32 noundef %15, i32 noundef 2, i32 noundef %16, i32 noundef %17)
  store i32 %18, ptr %10, align 4
  %19 = load i32, ptr %10, align 4
  %20 = icmp eq i32 %19, 1
  br i1 %20, label %21, label %24

21:                                               ; preds = %13
  %22 = getelementptr [3 x i32], ptr %9, i64 0, i64 0
  %23 = load i32, ptr %22, align 4
  store i32 %23, ptr %5, align 4
  br label %39

24:                                               ; preds = %13
  %25 = load i32, ptr %5, align 4
  %26 = icmp eq i32 %25, 64262
  br i1 %26, label %27, label %28

27:                                               ; preds = %24
  store i32 64261, ptr %5, align 4
  br label %38

28:                                               ; preds = %24
  %29 = load i32, ptr %5, align 4
  %30 = icmp eq i32 %29, 8147
  br i1 %30, label %31, label %32

31:                                               ; preds = %28
  store i32 912, ptr %5, align 4
  br label %37

32:                                               ; preds = %28
  %33 = load i32, ptr %5, align 4
  %34 = icmp eq i32 %33, 8163
  br i1 %34, label %35, label %36

35:                                               ; preds = %32
  store i32 944, ptr %5, align 4
  br label %36

36:                                               ; preds = %35, %32
  br label %37

37:                                               ; preds = %36, %31
  br label %38

38:                                               ; preds = %37, %27
  br label %39

39:                                               ; preds = %38, %21
  br label %76

40:                                               ; preds = %4
  %41 = load i32, ptr %5, align 4
  %42 = icmp ult i32 %41, 128
  %43 = xor i1 %42, true
  %44 = xor i1 %43, true
  %45 = zext i1 %44 to i32
  %46 = sext i32 %45 to i64
  %47 = icmp ne i64 %46, 0
  br i1 %47, label %48, label %59

48:                                               ; preds = %40
  %49 = load i32, ptr %5, align 4
  %50 = icmp uge i32 %49, 97
  br i1 %50, label %51, label %58

51:                                               ; preds = %48
  %52 = load i32, ptr %5, align 4
  %53 = icmp ule i32 %52, 122
  br i1 %53, label %54, label %58

54:                                               ; preds = %51
  %55 = load i32, ptr %5, align 4
  %56 = sub i32 %55, 97
  %57 = add i32 %56, 65
  store i32 %57, ptr %5, align 4
  br label %58

58:                                               ; preds = %54, %51, %48
  br label %75

59:                                               ; preds = %40
  %60 = getelementptr inbounds [3 x i32], ptr %9, i64 0, i64 0
  %61 = load i32, ptr %5, align 4
  %62 = load i32, ptr %6, align 4
  %63 = load i32, ptr %7, align 4
  %64 = call i32 @lre_case_conv_entry(ptr noundef %60, i32 noundef %61, i32 noundef 0, i32 noundef %62, i32 noundef %63)
  store i32 %64, ptr %10, align 4
  %65 = load i32, ptr %10, align 4
  %66 = icmp eq i32 %65, 1
  br i1 %66, label %67, label %74

67:                                               ; preds = %59
  %68 = getelementptr [3 x i32], ptr %9, i64 0, i64 0
  %69 = load i32, ptr %68, align 4
  %70 = icmp uge i32 %69, 128
  br i1 %70, label %71, label %74

71:                                               ; preds = %67
  %72 = getelementptr [3 x i32], ptr %9, i64 0, i64 0
  %73 = load i32, ptr %72, align 4
  store i32 %73, ptr %5, align 4
  br label %74

74:                                               ; preds = %71, %67, %59
  br label %75

75:                                               ; preds = %74, %58
  br label %76

76:                                               ; preds = %75, %39
  %77 = load i32, ptr %5, align 4
  ret i32 %77
}

; Function Attrs: nounwind uwtable
define dso_local i32 @lre_canonicalize(i32 noundef %0, i32 noundef %1) #0 {
  %3 = alloca i32, align 4
  %4 = alloca i32, align 4
  %5 = alloca i32, align 4
  %6 = alloca i32, align 4
  %7 = alloca i32, align 4
  %8 = alloca i32, align 4
  %9 = alloca i32, align 4
  %10 = alloca i32, align 4
  %11 = alloca i32, align 4
  store i32 %0, ptr %4, align 4
  store i32 %1, ptr %5, align 4
  %12 = load i32, ptr %4, align 4
  %13 = icmp ult i32 %12, 128
  br i1 %13, label %14, label %40

14:                                               ; preds = %2
  %15 = load i32, ptr %5, align 4
  %16 = icmp ne i32 %15, 0
  br i1 %16, label %17, label %28

17:                                               ; preds = %14
  %18 = load i32, ptr %4, align 4
  %19 = icmp uge i32 %18, 65
  br i1 %19, label %20, label %27

20:                                               ; preds = %17
  %21 = load i32, ptr %4, align 4
  %22 = icmp ule i32 %21, 90
  br i1 %22, label %23, label %27

23:                                               ; preds = %20
  %24 = load i32, ptr %4, align 4
  %25 = sub i32 %24, 65
  %26 = add i32 %25, 97
  store i32 %26, ptr %4, align 4
  br label %27

27:                                               ; preds = %23, %20, %17
  br label %39

28:                                               ; preds = %14
  %29 = load i32, ptr %4, align 4
  %30 = icmp uge i32 %29, 97
  br i1 %30, label %31, label %38

31:                                               ; preds = %28
  %32 = load i32, ptr %4, align 4
  %33 = icmp ule i32 %32, 122
  br i1 %33, label %34, label %38

34:                                               ; preds = %31
  %35 = load i32, ptr %4, align 4
  %36 = sub i32 %35, 97
  %37 = add i32 %36, 65
  store i32 %37, ptr %4, align 4
  br label %38

38:                                               ; preds = %34, %31, %28
  br label %39

39:                                               ; preds = %38, %27
  br label %83

40:                                               ; preds = %2
  store i32 0, ptr %10, align 4
  store i32 369, ptr %11, align 4
  br label %41

41:                                               ; preds = %81, %40
  %42 = load i32, ptr %10, align 4
  %43 = load i32, ptr %11, align 4
  %44 = icmp sle i32 %42, %43
  br i1 %44, label %45, label %82

45:                                               ; preds = %41
  %46 = load i32, ptr %11, align 4
  %47 = load i32, ptr %10, align 4
  %48 = add i32 %46, %47
  %49 = udiv i32 %48, 2
  store i32 %49, ptr %9, align 4
  %50 = load i32, ptr %9, align 4
  %51 = sext i32 %50 to i64
  %52 = getelementptr [370 x i32], ptr @case_conv_table1, i64 0, i64 %51
  %53 = load i32, ptr %52, align 4
  store i32 %53, ptr %6, align 4
  %54 = load i32, ptr %6, align 4
  %55 = lshr i32 %54, 15
  store i32 %55, ptr %7, align 4
  %56 = load i32, ptr %6, align 4
  %57 = lshr i32 %56, 8
  %58 = and i32 %57, 127
  store i32 %58, ptr %8, align 4
  %59 = load i32, ptr %4, align 4
  %60 = load i32, ptr %7, align 4
  %61 = icmp ult i32 %59, %60
  br i1 %61, label %62, label %65

62:                                               ; preds = %45
  %63 = load i32, ptr %9, align 4
  %64 = sub i32 %63, 1
  store i32 %64, ptr %11, align 4
  br label %81

65:                                               ; preds = %45
  %66 = load i32, ptr %4, align 4
  %67 = load i32, ptr %7, align 4
  %68 = load i32, ptr %8, align 4
  %69 = add i32 %67, %68
  %70 = icmp uge i32 %66, %69
  br i1 %70, label %71, label %74

71:                                               ; preds = %65
  %72 = load i32, ptr %9, align 4
  %73 = add i32 %72, 1
  store i32 %73, ptr %10, align 4
  br label %80

74:                                               ; preds = %65
  %75 = load i32, ptr %4, align 4
  %76 = load i32, ptr %9, align 4
  %77 = load i32, ptr %6, align 4
  %78 = load i32, ptr %5, align 4
  %79 = call i32 @lre_case_folding_entry(i32 noundef %75, i32 noundef %76, i32 noundef %77, i32 noundef %78)
  store i32 %79, ptr %3, align 4
  br label %85

80:                                               ; preds = %71
  br label %81

81:                                               ; preds = %80, %62
  br label %41, !llvm.loop !9

82:                                               ; preds = %41
  br label %83

83:                                               ; preds = %82, %39
  %84 = load i32, ptr %4, align 4
  store i32 %84, ptr %3, align 4
  br label %85

85:                                               ; preds = %83, %74
  %86 = load i32, ptr %3, align 4
  ret i32 %86
}