; Function Attrs: nofree nosync nounwind memory(none) uwtable
define dso_local i32 @lre_canonicalize(i32 noundef %0, i32 noundef %1) local_unnamed_addr #1 {
  %3 = alloca [3 x i32], align 4
  %4 = icmp ult i32 %0, 128
  br i1 %4, label %5, label %.preheader

5:                                                ; preds = %2
  %.not38 = icmp eq i32 %1, 0
  br i1 %.not38, label %9, label %6

6:                                                ; preds = %5
  %7 = add nsw i32 %0, -65
  %or.cond = icmp ult i32 %7, 26
  %8 = or disjoint i32 %0, 32
  %spec.select = select i1 %or.cond, i32 %8, i32 %0
  br label %.loopexit

9:                                                ; preds = %5
  %10 = add nsw i32 %0, -97
  %or.cond3 = icmp ult i32 %10, 26
  %11 = add nsw i32 %0, -32
  %spec.select39 = select i1 %or.cond3, i32 %11, i32 %0
  br label %.loopexit

.preheader:                                       ; preds = %2, %42
  %.042 = phi i32 [ %.1, %42 ], [ 369, %2 ]
  %.03141 = phi i32 [ %.132, %42 ], [ 0, %2 ]
  %12 = add i32 %.042, %.03141
  %13 = lshr i32 %12, 1
  %14 = zext nneg i32 %13 to i64
  %15 = getelementptr [370 x i32], ptr @case_conv_table1, i64 0, i64 %14
  %16 = load i32, ptr %15, align 4
  %17 = lshr i32 %16, 15
  %18 = icmp ugt i32 %17, %0
  br i1 %18, label %19, label %21

19:                                               ; preds = %.preheader
  %20 = add nsw i32 %13, -1
  br label %42

21:                                               ; preds = %.preheader
  %22 = lshr i32 %16, 8
  %23 = and i32 %22, 127
  %24 = add nuw nsw i32 %23, %17
  %.not37 = icmp ugt i32 %24, %0
  br i1 %.not37, label %27, label %25

25:                                               ; preds = %21
  %26 = add nuw i32 %13, 1
  br label %42

27:                                               ; preds = %21
  call void @llvm.lifetime.start.p0(i64 12, ptr nonnull %3)
  %.not.i = icmp eq i32 %1, 0
  br i1 %.not.i, label %37, label %28

28:                                               ; preds = %27
  %29 = call fastcc i32 @lre_case_conv_entry(ptr noundef nonnull %3, i32 noundef %0, i32 noundef 2, i32 noundef %13, i32 noundef %16), !range !7
  %30 = icmp eq i32 %29, 1
  br i1 %30, label %31, label %33

31:                                               ; preds = %28
  %32 = load i32, ptr %3, align 4
  br label %lre_case_folding_entry.exit

33:                                               ; preds = %28
  switch i32 %0, label %35 [
    i32 64262, label %lre_case_folding_entry.exit
    i32 8147, label %34
  ]

34:                                               ; preds = %33
  br label %lre_case_folding_entry.exit

35:                                               ; preds = %33
  %36 = icmp eq i32 %0, 8163
  %spec.store.select.i = select i1 %36, i32 944, i32 %0
  br label %lre_case_folding_entry.exit

37:                                               ; preds = %27
  %38 = call fastcc i32 @lre_case_conv_entry(ptr noundef nonnull %3, i32 noundef %0, i32 noundef 0, i32 noundef %13, i32 noundef %16), !range !7
  %39 = icmp eq i32 %38, 1
  %40 = load i32, ptr %3, align 4
  %41 = icmp ugt i32 %40, 127
  %or.cond4.i = select i1 %39, i1 %41, i1 false
  %spec.select23.i = select i1 %or.cond4.i, i32 %40, i32 %0
  br label %lre_case_folding_entry.exit

lre_case_folding_entry.exit:                      ; preds = %31, %33, %34, %35, %37
  %.0.i = phi i32 [ %32, %31 ], [ 912, %34 ], [ %spec.store.select.i, %35 ], [ 64261, %33 ], [ %spec.select23.i, %37 ]
  call void @llvm.lifetime.end.p0(i64 12, ptr nonnull %3)
  br label %.loopexit

42:                                               ; preds = %25, %19
  %.132 = phi i32 [ %.03141, %19 ], [ %26, %25 ]
  %.1 = phi i32 [ %20, %19 ], [ %.042, %25 ]
  %.not = icmp sgt i32 %.132, %.1
  br i1 %.not, label %.loopexit, label %.preheader, !llvm.loop !10

.loopexit:                                        ; preds = %42, %9, %6, %lre_case_folding_entry.exit
  %.033 = phi i32 [ %.0.i, %lre_case_folding_entry.exit ], [ %spec.select, %6 ], [ %spec.select39, %9 ], [ %0, %42 ]
  ret i32 %.033
}